target datalayout = "e-m:e-p270:32:32-p271:32:32-p272:64:64-i64:64-i128:128-f80:128-n8:16:32:64-S128"
target triple = "x86_64-pc-linux-gnu"

%struct.ggml_backend_buffer_i = type { ptr, ptr, ptr, ptr, ptr, ptr, ptr, ptr, ptr }
%struct.ggml_backend_buffer_type = type { %struct.ggml_backend_buffer_type_i, ptr, ptr }
%struct.ggml_backend_buffer_type_i = type { ptr, ptr, ptr, ptr, ptr, ptr }
%struct.ggml_backend_buffer = type { %struct.ggml_backend_buffer_i, ptr, ptr, i64, i32 }

; Function Attrs: mustprogress uwtable
define i64 @ggml_backend_buft_get_alloc_size(ptr noundef %0, ptr noundef %1) #0 {
  %3 = alloca i64, align 8
  %4 = alloca ptr, align 8
  %5 = alloca ptr, align 8
  %6 = alloca i64, align 8
  store ptr %0, ptr %4, align 8, !tbaa !3
  store ptr %1, ptr %5, align 8, !tbaa !28
  %7 = load ptr, ptr %4, align 8, !tbaa !3
  %8 = getelementptr inbounds nuw %struct.ggml_backend_buffer_type, ptr %7, i32 0, i32 0
  %9 = getelementptr inbounds nuw %struct.ggml_backend_buffer_type_i, ptr %8, i32 0, i32 4
  %10 = load ptr, ptr %9, align 8, !tbaa !30
  %11 = icmp ne ptr %10, null
  br i1 %11, label %12, label %21

12:                                               ; preds = %2
  call void @llvm.lifetime.start.p0(i64 8, ptr %6) #15
  %13 = load ptr, ptr %4, align 8, !tbaa !3
  %14 = getelementptr inbounds nuw %struct.ggml_backend_buffer_type, ptr %13, i32 0, i32 0
  %15 = getelementptr inbounds nuw %struct.ggml_backend_buffer_type_i, ptr %14, i32 0, i32 4
  %16 = load ptr, ptr %15, align 8, !tbaa !30
  %17 = load ptr, ptr %4, align 8, !tbaa !3
  %18 = load ptr, ptr %5, align 8, !tbaa !28
  %19 = call noundef i64 %16(ptr noundef %17, ptr noundef %18)
  store i64 %19, ptr %6, align 8, !tbaa !12
  %20 = load i64, ptr %6, align 8, !tbaa !12
  store i64 %20, ptr %3, align 8
  call void @llvm.lifetime.end.p0(i64 8, ptr %6) #15
  br label %24

21:                                               ; preds = %2
  %22 = load ptr, ptr %5, align 8, !tbaa !28
  %23 = call i64 @ggml_nbytes(ptr noundef %22)
  store i64 %23, ptr %3, align 8
  br label %24

24:                                               ; preds = %21, %12
  %25 = load i64, ptr %3, align 8
  ret i64 %25
}

; Function Attrs: mustprogress nounwind uwtable
define ptr @ggml_backend_buffer_get_type(ptr noundef %0) #4 {
  %2 = alloca ptr, align 8
  store ptr %0, ptr %2, align 8, !tbaa !24
  %3 = load ptr, ptr %2, align 8, !tbaa !24
  %4 = getelementptr inbounds nuw %struct.ggml_backend_buffer, ptr %3, i32 0, i32 1
  %5 = load ptr, ptr %4, align 8, !tbaa !17
  ret ptr %5
}

; Function Attrs: mustprogress uwtable
define i64 @ggml_backend_buffer_get_alloc_size(ptr noundef %0, ptr noundef %1) #0 {
  %3 = alloca ptr, align 8
  %4 = alloca ptr, align 8
  store ptr %0, ptr %3, align 8, !tbaa !24
  store ptr %1, ptr %4, align 8, !tbaa !28
  %5 = load ptr, ptr %3, align 8, !tbaa !24
  %6 = call ptr @ggml_backend_buffer_get_type(ptr noundef %5)
  %7 = load ptr, ptr %4, align 8, !tbaa !28
  %8 = call i64 @ggml_backend_buft_get_alloc_size(ptr noundef %6, ptr noundef %7)
  ret i64 %8
}