; Function Attrs: mustprogress uwtable
define i64 @ggml_backend_buffer_get_alloc_size(ptr noundef readonly captures(none) %0, ptr noundef %1) local_unnamed_addr #0 {
  %3 = getelementptr inbounds nuw i8, ptr %0, i64 72
  %4 = load ptr, ptr %3, align 8, !tbaa !10
  %5 = getelementptr inbounds nuw i8, ptr %4, i64 32
  %6 = load ptr, ptr %5, align 8, !tbaa !24
  %.not.i = icmp eq ptr %6, null
  br i1 %.not.i, label %9, label %7

7:                                                ; preds = %2
  %8 = tail call noundef i64 %6(ptr noundef nonnull %4, ptr noundef %1)
  br label %ggml_backend_buft_get_alloc_size.exit

9:                                                ; preds = %2
  %10 = tail call i64 @ggml_nbytes(ptr noundef %1)
  br label %ggml_backend_buft_get_alloc_size.exit

ggml_backend_buft_get_alloc_size.exit:            ; preds = %7, %9
  %.0.i = phi i64 [ %8, %7 ], [ %10, %9 ]
  ret i64 %.0.i
}